target datalayout = "e-m:e-p270:32:32-p271:32:32-p272:64:64-i64:64-i128:128-f80:128-n8:16:32:64-S128"
target triple = "x86_64-pc-linux-gnu"

%struct.ExtensionControlFile = type { ptr, ptr, ptr, ptr, ptr, ptr, i8, i8, i8, i32, ptr, ptr }

@my_exec_path = external global [0 x i8], align 1
@.str.42 = private unnamed_addr constant [6 x i8] c"%s/%s\00", align 1
@.str.106 = private unnamed_addr constant [13 x i8] c"%s/extension\00", align 1

; Function Attrs: nounwind uwtable
define internal ptr @get_extension_control_directory() #0 {
  %1 = alloca [1024 x i8], align 16
  %2 = alloca ptr, align 8
  call void @llvm.lifetime.start.p0(i64 1024, ptr %1) #12
  call void @llvm.lifetime.start.p0(i64 8, ptr %2) #12
  %3 = getelementptr inbounds [1024 x i8], ptr %1, i64 0, i64 0
  call void @get_share_path(ptr noundef @my_exec_path, ptr noundef %3)
  %4 = call ptr @palloc(i64 noundef 1024)
  store ptr %4, ptr %2, align 8
  %5 = load ptr, ptr %2, align 8
  %6 = getelementptr inbounds [1024 x i8], ptr %1, i64 0, i64 0
  %7 = call i32 (ptr, i64, ptr, ...) @pg_snprintf(ptr noundef %5, i64 noundef 1024, ptr noundef @.str.106, ptr noundef %6)
  %8 = load ptr, ptr %2, align 8
  call void @llvm.lifetime.end.p0(i64 8, ptr %2) #12
  call void @llvm.lifetime.end.p0(i64 1024, ptr %1) #12
  ret ptr %8
}

; Function Attrs: nounwind uwtable
define internal ptr @get_extension_script_directory(ptr noundef %0) #0 {
  %2 = alloca ptr, align 8
  %3 = alloca ptr, align 8
  %4 = alloca [1024 x i8], align 16
  %5 = alloca ptr, align 8
  %6 = alloca i32, align 4
  store ptr %0, ptr %3, align 8
  call void @llvm.lifetime.start.p0(i64 1024, ptr %4) #12
  call void @llvm.lifetime.start.p0(i64 8, ptr %5) #12
  %7 = load ptr, ptr %3, align 8
  %8 = getelementptr inbounds nuw %struct.ExtensionControlFile, ptr %7, i32 0, i32 1
  %9 = load ptr, ptr %8, align 8
  %10 = icmp ne ptr %9, null
  br i1 %10, label %13, label %11

11:                                               ; preds = %1
  %12 = call ptr @get_extension_control_directory()
  store ptr %12, ptr %2, align 8
  store i32 1, ptr %6, align 4
  br label %36

13:                                               ; preds = %1
  %14 = load ptr, ptr %3, align 8
  %15 = getelementptr inbounds nuw %struct.ExtensionControlFile, ptr %14, i32 0, i32 1
  %16 = load ptr, ptr %15, align 8
  %17 = getelementptr inbounds i8, ptr %16, i64 0
  %18 = load i8, ptr %17, align 1
  %19 = sext i8 %18 to i32
  %20 = icmp eq i32 %19, 47
  br i1 %20, label %21, label %26

21:                                               ; preds = %13
  %22 = load ptr, ptr %3, align 8
  %23 = getelementptr inbounds nuw %struct.ExtensionControlFile, ptr %22, i32 0, i32 1
  %24 = load ptr, ptr %23, align 8
  %25 = call ptr @pstrdup(ptr noundef %24)
  store ptr %25, ptr %2, align 8
  store i32 1, ptr %6, align 4
  br label %36

26:                                               ; preds = %13
  %27 = getelementptr inbounds [1024 x i8], ptr %4, i64 0, i64 0
  call void @get_share_path(ptr noundef @my_exec_path, ptr noundef %27)
  %28 = call ptr @palloc(i64 noundef 1024)
  store ptr %28, ptr %5, align 8
  %29 = load ptr, ptr %5, align 8
  %30 = getelementptr inbounds [1024 x i8], ptr %4, i64 0, i64 0
  %31 = load ptr, ptr %3, align 8
  %32 = getelementptr inbounds nuw %struct.ExtensionControlFile, ptr %31, i32 0, i32 1
  %33 = load ptr, ptr %32, align 8
  %34 = call i32 (ptr, i64, ptr, ...) @pg_snprintf(ptr noundef %29, i64 noundef 1024, ptr noundef @.str.42, ptr noundef %30, ptr noundef %33)
  %35 = load ptr, ptr %5, align 8
  store ptr %35, ptr %2, align 8
  store i32 1, ptr %6, align 4
  br label %36

36:                                               ; preds = %26, %21, %11
  call void @llvm.lifetime.end.p0(i64 8, ptr %5) #12
  call void @llvm.lifetime.end.p0(i64 1024, ptr %4) #12
  %37 = load ptr, ptr %2, align 8
  ret ptr %37
}