; Function Attrs: nounwind uwtable
define internal fastcc ptr @get_extension_script_directory(ptr noundef readonly captures(none) %0) unnamed_addr #0 {
  %2 = alloca [1024 x i8], align 16
  %3 = alloca [1024 x i8], align 16
  call void @llvm.lifetime.start.p0(i64 1024, ptr nonnull %3) #15
  %4 = getelementptr inbounds nuw i8, ptr %0, i64 8
  %5 = load ptr, ptr %4, align 8
  %.not = icmp eq ptr %5, null
  br i1 %.not, label %6, label %9

6:                                                ; preds = %1
  call void @llvm.lifetime.start.p0(i64 1024, ptr nonnull %2) #15
  call void @get_share_path(ptr noundef nonnull @my_exec_path, ptr noundef nonnull %2) #15
  %7 = call ptr @palloc(i64 noundef 1024) #15
  %8 = call i32 (ptr, i64, ptr, ...) @pg_snprintf(ptr noundef %7, i64 noundef 1024, ptr noundef nonnull @.str.106, ptr noundef nonnull %2) #15
  call void @llvm.lifetime.end.p0(i64 1024, ptr nonnull %2) #15
  br label %18

9:                                                ; preds = %1
  %10 = load i8, ptr %5, align 1
  %11 = icmp eq i8 %10, 47
  br i1 %11, label %12, label %14

12:                                               ; preds = %9
  %13 = tail call ptr @pstrdup(ptr noundef nonnull %5) #15
  br label %18

14:                                               ; preds = %9
  call void @get_share_path(ptr noundef nonnull @my_exec_path, ptr noundef nonnull %3) #15
  %15 = call ptr @palloc(i64 noundef 1024) #15
  %16 = load ptr, ptr %4, align 8
  %17 = call i32 (ptr, i64, ptr, ...) @pg_snprintf(ptr noundef %15, i64 noundef 1024, ptr noundef nonnull @.str.42, ptr noundef nonnull %3, ptr noundef %16) #15
  br label %18

18:                                               ; preds = %14, %12, %6
  %.0 = phi ptr [ %13, %12 ], [ %15, %14 ], [ %7, %6 ]
  call void @llvm.lifetime.end.p0(i64 1024, ptr nonnull %3) #15
  ret ptr %.0
}